; ModuleID = '30/1679.cpp'
source_filename = "30/1679.cpp"
target datalayout = "e-m:e-p270:32:32-p271:32:32-p272:64:64-i64:64-f80:128-n8:16:32:64-S128"
target triple = "x86_64-pc-linux-gnu"

%"class.std::ios_base::Init" = type { i8 }
%"class.std::basic_istream" = type { i32 (...)**, i64, %"class.std::basic_ios" }
%"class.std::basic_ios" = type { %"class.std::ios_base", %"class.std::basic_ostream"*, i8, i8, %"class.std::basic_streambuf"*, %"class.std::ctype"*, %"class.std::num_put"*, %"class.std::num_get"* }
%"class.std::ios_base" = type { i32 (...)**, i64, i64, i32, i32, i32, %"struct.std::ios_base::_Callback_list"*, %"struct.std::ios_base::_Words", [8 x %"struct.std::ios_base::_Words"], i32, %"struct.std::ios_base::_Words"*, %"class.std::locale" }
%"struct.std::ios_base::_Callback_list" = type { %"struct.std::ios_base::_Callback_list"*, void (i32, %"class.std::ios_base"*, i32)*, i32, i32 }
%"struct.std::ios_base::_Words" = type { i8*, i64 }
%"class.std::locale" = type { %"class.std::locale::_Impl"* }
%"class.std::locale::_Impl" = type { i32, %"class.std::locale::facet"**, i64, %"class.std::locale::facet"**, i8** }
%"class.std::locale::facet" = type <{ i32 (...)**, i32, [4 x i8] }>
%"class.std::basic_ostream" = type { i32 (...)**, %"class.std::basic_ios" }
%"class.std::basic_streambuf" = type { i32 (...)**, i8*, i8*, i8*, i8*, i8*, i8*, %"class.std::locale" }
%"class.std::ctype" = type <{ %"class.std::locale::facet.base", [4 x i8], %struct.__locale_struct*, i8, [7 x i8], i32*, i32*, i16*, i8, [256 x i8], [256 x i8], i8, [6 x i8] }>
%"class.std::locale::facet.base" = type <{ i32 (...)**, i32 }>
%struct.__locale_struct = type { [13 x %struct.__locale_data*], i16*, i32*, i32*, [13 x i8*] }
%struct.__locale_data = type opaque
%"class.std::num_put" = type { %"class.std::locale::facet.base", [4 x i8] }
%"class.std::num_get" = type { %"class.std::locale::facet.base", [4 x i8] }

@_ZStL8__ioinit = internal global %"class.std::ios_base::Init" zeroinitializer, align 1
@__dso_handle = external hidden global i8
@_ZSt3cin = external dso_local global %"class.std::basic_istream", align 8
@_ZSt4cout = external dso_local global %"class.std::basic_ostream", align 8
@llvm.global_ctors = appending global [1 x { i32, void ()*, i8* }] [{ i32, void ()*, i8* } { i32 65535, void ()* @_GLOBAL__sub_I_1679.cpp, i8* null }]

; Function Attrs: noinline uwtable
define internal void @__cxx_global_var_init() #0 section ".text.startup" {
  call void @_ZNSt8ios_base4InitC1Ev(%"class.std::ios_base::Init"* @_ZStL8__ioinit)
  %1 = call i32 @__cxa_atexit(void (i8*)* bitcast (void (%"class.std::ios_base::Init"*)* @_ZNSt8ios_base4InitD1Ev to void (i8*)*), i8* getelementptr inbounds (%"class.std::ios_base::Init", %"class.std::ios_base::Init"* @_ZStL8__ioinit, i32 0, i32 0), i8* @__dso_handle) #3
  ret void
}

declare dso_local void @_ZNSt8ios_base4InitC1Ev(%"class.std::ios_base::Init"*) unnamed_addr #1

; Function Attrs: nounwind
declare dso_local void @_ZNSt8ios_base4InitD1Ev(%"class.std::ios_base::Init"*) unnamed_addr #2

; Function Attrs: nounwind
declare dso_local i32 @__cxa_atexit(void (i8*)*, i8*, i8*) #3

; Function Attrs: noinline norecurse uwtable
define dso_local i32 @main() #4 {
  %1 = alloca i32, align 4
  %2 = alloca i32, align 4
  %3 = alloca i32, align 4
  %4 = alloca i32, align 4
  %5 = alloca i32, align 4
  %6 = alloca i32, align 4
  %7 = alloca i32, align 4
  %8 = alloca i32, align 4
  %9 = alloca i32, align 4
  %10 = alloca i32, align 4
  %11 = alloca i32, align 4
  store i32 0, i32* %1, align 4
  store i32 0, i32* %4, align 4
  store i32 0, i32* %5, align 4
  store i32 0, i32* %6, align 4
  store i32 0, i32* %7, align 4
  %12 = call dereferenceable(280) %"class.std::basic_istream"* @_ZNSirsERi(%"class.std::basic_istream"* @_ZSt3cin, i32* dereferenceable(4) %2)
  store i32 1, i32* %8, align 4
  br label %13

13:                                               ; preds = %23, %0
  %14 = load i32, i32* %8, align 4
  %15 = load i32, i32* %2, align 4
  %16 = icmp sle i32 %14, %15
  br i1 %16, label %17, label %26

17:                                               ; preds = %13
  %18 = load i32, i32* %4, align 4
  %19 = load i32, i32* %8, align 4
  %20 = load i32, i32* %8, align 4
  %21 = mul nsw i32 %19, %20
  %22 = add nsw i32 %18, %21
  store i32 %22, i32* %4, align 4
  br label %23

23:                                               ; preds = %17
  %24 = load i32, i32* %8, align 4
  %25 = add nsw i32 %24, 1
  store i32 %25, i32* %8, align 4
  br label %13

26:                                               ; preds = %13
  store i32 7, i32* %9, align 4
  br label %27

27:                                               ; preds = %37, %26
  %28 = load i32, i32* %9, align 4
  %29 = load i32, i32* %2, align 4
  %30 = icmp sle i32 %28, %29
  br i1 %30, label %31, label %40

31:                                               ; preds = %27
  %32 = load i32, i32* %5, align 4
  %33 = load i32, i32* %9, align 4
  %34 = load i32, i32* %9, align 4
  %35 = mul nsw i32 %33, %34
  %36 = add nsw i32 %32, %35
  store i32 %36, i32* %5, align 4
  br label %37

37:                                               ; preds = %31
  %38 = load i32, i32* %9, align 4
  %39 = add nsw i32 %38, 10
  store i32 %39, i32* %9, align 4
  br label %27

40:                                               ; preds = %27
  store i32 7, i32* %10, align 4
  br label %41

41:                                               ; preds = %51, %40
  %42 = load i32, i32* %10, align 4
  %43 = load i32, i32* %2, align 4
  %44 = icmp sle i32 %42, %43
  br i1 %44, label %45, label %54

45:                                               ; preds = %41
  %46 = load i32, i32* %6, align 4
  %47 = load i32, i32* %10, align 4
  %48 = load i32, i32* %10, align 4
  %49 = mul nsw i32 %47, %48
  %50 = add nsw i32 %46, %49
  store i32 %50, i32* %6, align 4
  br label %51

51:                                               ; preds = %45
  %52 = load i32, i32* %10, align 4
  %53 = add nsw i32 %52, 7
  store i32 %53, i32* %10, align 4
  br label %41

54:                                               ; preds = %41
  store i32 71, i32* %11, align 4
  br label %55

55:                                               ; preds = %70, %54
  %56 = load i32, i32* %11, align 4
  %57 = load i32, i32* %2, align 4
  %58 = icmp sle i32 %56, %57
  br i1 %58, label %59, label %62

59:                                               ; preds = %55
  %60 = load i32, i32* %11, align 4
  %61 = icmp sle i32 %60, 79
  br label %62

62:                                               ; preds = %59, %55
  %63 = phi i1 [ false, %55 ], [ %61, %59 ]
  br i1 %63, label %64, label %73

64:                                               ; preds = %62
  %65 = load i32, i32* %7, align 4
  %66 = load i32, i32* %11, align 4
  %67 = load i32, i32* %11, align 4
  %68 = mul nsw i32 %66, %67
  %69 = add nsw i32 %65, %68
  store i32 %69, i32* %7, align 4
  br label %70

70:                                               ; preds = %64
  %71 = load i32, i32* %11, align 4
  %72 = add nsw i32 %71, 1
  store i32 %72, i32* %11, align 4
  br label %55

73:                                               ; preds = %62
  %74 = load i32, i32* %4, align 4
  %75 = load i32, i32* %5, align 4
  %76 = sub nsw i32 %74, %75
  %77 = load i32, i32* %6, align 4
  %78 = sub nsw i32 %76, %77
  %79 = load i32, i32* %7, align 4
  %80 = sub nsw i32 %78, %79
  store i32 %80, i32* %4, align 4
  %81 = load i32, i32* %2, align 4
  %82 = icmp slt i32 %81, 7
  br i1 %82, label %83, label %85

83:                                               ; preds = %73
  %84 = load i32, i32* %4, align 4
  store i32 %84, i32* %4, align 4
  br label %99

85:                                               ; preds = %73
  %86 = load i32, i32* %2, align 4
  %87 = icmp sge i32 %86, 7
  br i1 %87, label %88, label %94

88:                                               ; preds = %85
  %89 = load i32, i32* %2, align 4
  %90 = icmp slt i32 %89, 77
  br i1 %90, label %91, label %94

91:                                               ; preds = %88
  %92 = load i32, i32* %4, align 4
  %93 = add nsw i32 %92, 49
  store i32 %93, i32* %4, align 4
  br label %98

94:                                               ; preds = %88, %85
  %95 = load i32, i32* %4, align 4
  %96 = add nsw i32 %95, 49
  %97 = add nsw i32 %96, 11858
  store i32 %97, i32* %4, align 4
  br label %98

98:                                               ; preds = %94, %91
  br label %99

99:                                               ; preds = %98, %83
  %100 = load i32, i32* %4, align 4
  %101 = call dereferenceable(272) %"class.std::basic_ostream"* @_ZNSolsEi(%"class.std::basic_ostream"* @_ZSt4cout, i32 %100)
  %102 = call dereferenceable(272) %"class.std::basic_ostream"* @_ZNSolsEPFRSoS_E(%"class.std::basic_ostream"* %101, %"class.std::basic_ostream"* (%"class.std::basic_ostream"*)* @_ZSt4endlIcSt11char_traitsIcEERSt13basic_ostreamIT_T0_ES6_)
  ret i32 0
}

declare dso_local dereferenceable(280) %"class.std::basic_istream"* @_ZNSirsERi(%"class.std::basic_istream"*, i32* dereferenceable(4)) #1

declare dso_local dereferenceable(272) %"class.std::basic_ostream"* @_ZNSolsEi(%"class.std::basic_ostream"*, i32) #1

declare dso_local dereferenceable(272) %"class.std::basic_ostream"* @_ZNSolsEPFRSoS_E(%"class.std::basic_ostream"*, %"class.std::basic_ostream"* (%"class.std::basic_ostream"*)*) #1

declare dso_local dereferenceable(272) %"class.std::basic_ostream"* @_ZSt4endlIcSt11char_traitsIcEERSt13basic_ostreamIT_T0_ES6_(%"class.std::basic_ostream"* dereferenceable(272)) #1

; Function Attrs: noinline uwtable
define internal void @_GLOBAL__sub_I_1679.cpp() #0 section ".text.startup" {
  call void @__cxx_global_var_init()
  ret void
}


!llvm.module.flags = !{!0}
!llvm.ident = !{!1}

!0 = !{i32 1, !"wchar_size", i32 4}
!1 = !{!"clang version 10.0.0-4ubuntu1 "}
